target datalayout = "e-m:e-p270:32:32-p271:32:32-p272:64:64-i64:64-i128:128-f80:128-n8:16:32:64-S128"
target triple = "x86_64-pc-linux-gnu"

%"struct.OpenSubdiv::v3_6_0::Osd::BufferDescriptor" = type { i32, i32, i32 }

; Function Attrs: mustprogress nounwind uwtable
define linkonce_odr void @_ZN10OpenSubdiv6v3_6_03Osd16BufferDescriptorC2Ev(ptr noundef nonnull align 4 dereferenceable(12) %0) unnamed_addr #5 comdat align 2 {
  %2 = alloca ptr, align 8
  store ptr %0, ptr %2, align 8
  %3 = load ptr, ptr %2, align 8
  %4 = getelementptr inbounds nuw %"struct.OpenSubdiv::v3_6_0::Osd::BufferDescriptor", ptr %3, i32 0, i32 0
  store i32 0, ptr %4, align 4
  %5 = getelementptr inbounds nuw %"struct.OpenSubdiv::v3_6_0::Osd::BufferDescriptor", ptr %3, i32 0, i32 1
  store i32 0, ptr %5, align 4
  %6 = getelementptr inbounds nuw %"struct.OpenSubdiv::v3_6_0::Osd::BufferDescriptor", ptr %3, i32 0, i32 2
  store i32 0, ptr %6, align 4
  ret void
}

; Function Attrs: mustprogress uwtable
define noundef zeroext i1 @_ZN10OpenSubdiv6v3_6_03Osd12TbbEvaluator11EvalPatchesEPKfRKNS1_16BufferDescriptorEPfS7_iPKNS1_10PatchCoordEPKNS1_10PatchArrayEPKiPKNS1_10PatchParamE(ptr noundef %0, ptr noundef nonnull align 4 dereferenceable(12) %1, ptr noundef %2, ptr noundef nonnull align 4 dereferenceable(12) %3, i32 noundef %4, ptr noundef %5, ptr noundef %6, ptr noundef %7, ptr noundef %8) #4 align 2 {
  %10 = alloca i1, align 1
  %11 = alloca ptr, align 8
  %12 = alloca ptr, align 8
  %13 = alloca ptr, align 8
  %14 = alloca ptr, align 8
  %15 = alloca i32, align 4
  %16 = alloca ptr, align 8
  %17 = alloca ptr, align 8
  %18 = alloca ptr, align 8
  %19 = alloca ptr, align 8
  %20 = alloca %"struct.OpenSubdiv::v3_6_0::Osd::BufferDescriptor", align 4
  %21 = alloca %"struct.OpenSubdiv::v3_6_0::Osd::BufferDescriptor", align 4
  %22 = alloca %"struct.OpenSubdiv::v3_6_0::Osd::BufferDescriptor", align 4
  %23 = alloca %"struct.OpenSubdiv::v3_6_0::Osd::BufferDescriptor", align 4
  %24 = alloca %"struct.OpenSubdiv::v3_6_0::Osd::BufferDescriptor", align 4
  store ptr %0, ptr %11, align 8
  store ptr %1, ptr %12, align 8
  store ptr %2, ptr %13, align 8
  store ptr %3, ptr %14, align 8
  store i32 %4, ptr %15, align 4
  store ptr %5, ptr %16, align 8
  store ptr %6, ptr %17, align 8
  store ptr %7, ptr %18, align 8
  store ptr %8, ptr %19, align 8
  %25 = load ptr, ptr %12, align 8
  %26 = getelementptr inbounds nuw %"struct.OpenSubdiv::v3_6_0::Osd::BufferDescriptor", ptr %25, i32 0, i32 1
  %27 = load i32, ptr %26, align 4
  %28 = load ptr, ptr %14, align 8
  %29 = getelementptr inbounds nuw %"struct.OpenSubdiv::v3_6_0::Osd::BufferDescriptor", ptr %28, i32 0, i32 1
  %30 = load i32, ptr %29, align 4
  %31 = icmp ne i32 %27, %30
  br i1 %31, label %32, label %33

32:                                               ; preds = %9
  store i1 false, ptr %10, align 1
  br label %43

33:                                               ; preds = %9
  %34 = load ptr, ptr %11, align 8
  %35 = load ptr, ptr %12, align 8
  %36 = load ptr, ptr %13, align 8
  %37 = load ptr, ptr %14, align 8
  call void @_ZN10OpenSubdiv6v3_6_03Osd16BufferDescriptorC2Ev(ptr noundef nonnull align 4 dereferenceable(12) %20)
  call void @_ZN10OpenSubdiv6v3_6_03Osd16BufferDescriptorC2Ev(ptr noundef nonnull align 4 dereferenceable(12) %21)
  call void @_ZN10OpenSubdiv6v3_6_03Osd16BufferDescriptorC2Ev(ptr noundef nonnull align 4 dereferenceable(12) %22)
  call void @_ZN10OpenSubdiv6v3_6_03Osd16BufferDescriptorC2Ev(ptr noundef nonnull align 4 dereferenceable(12) %23)
  call void @_ZN10OpenSubdiv6v3_6_03Osd16BufferDescriptorC2Ev(ptr noundef nonnull align 4 dereferenceable(12) %24)
  %38 = load i32, ptr %15, align 4
  %39 = load ptr, ptr %16, align 8
  %40 = load ptr, ptr %17, align 8
  %41 = load ptr, ptr %18, align 8
  %42 = load ptr, ptr %19, align 8
  call void @_ZN10OpenSubdiv6v3_6_03Osd14TbbEvalPatchesEPKfRKNS1_16BufferDescriptorEPfS6_S7_S6_S7_S6_S7_S6_S7_S6_S7_S6_iPKNS1_10PatchCoordEPKNS1_10PatchArrayEPKiPKNS1_10PatchParamE(ptr noundef %34, ptr noundef nonnull align 4 dereferenceable(12) %35, ptr noundef %36, ptr noundef nonnull align 4 dereferenceable(12) %37, ptr noundef null, ptr noundef nonnull align 4 dereferenceable(12) %20, ptr noundef null, ptr noundef nonnull align 4 dereferenceable(12) %21, ptr noundef null, ptr noundef nonnull align 4 dereferenceable(12) %22, ptr noundef null, ptr noundef nonnull align 4 dereferenceable(12) %23, ptr noundef null, ptr noundef nonnull align 4 dereferenceable(12) %24, i32 noundef %38, ptr noundef %39, ptr noundef %40, ptr noundef %41, ptr noundef %42)
  store i1 true, ptr %10, align 1
  br label %43

43:                                               ; preds = %33, %32
  %44 = load i1, ptr %10, align 1
  ret i1 %44
}