; Function Attrs: mustprogress uwtable
define noundef zeroext i1 @_ZN10OpenSubdiv6v3_6_03Osd12TbbEvaluator11EvalPatchesEPKfRKNS1_16BufferDescriptorEPfS7_iPKNS1_10PatchCoordEPKNS1_10PatchArrayEPKiPKNS1_10PatchParamE(ptr noundef %0, ptr noundef nonnull align 4 dereferenceable(12) %1, ptr noundef %2, ptr noundef nonnull align 4 dereferenceable(12) %3, i32 noundef %4, ptr noundef %5, ptr noundef %6, ptr noundef %7, ptr noundef %8) local_unnamed_addr #3 align 2 {
  %10 = alloca %"struct.OpenSubdiv::v3_6_0::Osd::BufferDescriptor", align 4
  %11 = alloca %"struct.OpenSubdiv::v3_6_0::Osd::BufferDescriptor", align 4
  %12 = alloca %"struct.OpenSubdiv::v3_6_0::Osd::BufferDescriptor", align 4
  %13 = alloca %"struct.OpenSubdiv::v3_6_0::Osd::BufferDescriptor", align 4
  %14 = alloca %"struct.OpenSubdiv::v3_6_0::Osd::BufferDescriptor", align 4
  %15 = getelementptr inbounds nuw i8, ptr %1, i64 4
  %16 = load i32, ptr %15, align 4
  %17 = getelementptr inbounds nuw i8, ptr %3, i64 4
  %18 = load i32, ptr %17, align 4
  %.not = icmp eq i32 %16, %18
  br i1 %.not, label %19, label %30

19:                                               ; preds = %9
  store i32 0, ptr %10, align 4
  %20 = getelementptr inbounds nuw i8, ptr %10, i64 4
  store i32 0, ptr %20, align 4
  %21 = getelementptr inbounds nuw i8, ptr %10, i64 8
  store i32 0, ptr %21, align 4
  store i32 0, ptr %11, align 4
  %22 = getelementptr inbounds nuw i8, ptr %11, i64 4
  store i32 0, ptr %22, align 4
  %23 = getelementptr inbounds nuw i8, ptr %11, i64 8
  store i32 0, ptr %23, align 4
  store i32 0, ptr %12, align 4
  %24 = getelementptr inbounds nuw i8, ptr %12, i64 4
  store i32 0, ptr %24, align 4
  %25 = getelementptr inbounds nuw i8, ptr %12, i64 8
  store i32 0, ptr %25, align 4
  store i32 0, ptr %13, align 4
  %26 = getelementptr inbounds nuw i8, ptr %13, i64 4
  store i32 0, ptr %26, align 4
  %27 = getelementptr inbounds nuw i8, ptr %13, i64 8
  store i32 0, ptr %27, align 4
  store i32 0, ptr %14, align 4
  %28 = getelementptr inbounds nuw i8, ptr %14, i64 4
  store i32 0, ptr %28, align 4
  %29 = getelementptr inbounds nuw i8, ptr %14, i64 8
  store i32 0, ptr %29, align 4
  call void @_ZN10OpenSubdiv6v3_6_03Osd14TbbEvalPatchesEPKfRKNS1_16BufferDescriptorEPfS6_S7_S6_S7_S6_S7_S6_S7_S6_S7_S6_iPKNS1_10PatchCoordEPKNS1_10PatchArrayEPKiPKNS1_10PatchParamE(ptr noundef %0, ptr noundef nonnull align 4 dereferenceable(12) %1, ptr noundef %2, ptr noundef nonnull align 4 dereferenceable(12) %3, ptr noundef null, ptr noundef nonnull align 4 dereferenceable(12) %10, ptr noundef null, ptr noundef nonnull align 4 dereferenceable(12) %11, ptr noundef null, ptr noundef nonnull align 4 dereferenceable(12) %12, ptr noundef null, ptr noundef nonnull align 4 dereferenceable(12) %13, ptr noundef null, ptr noundef nonnull align 4 dereferenceable(12) %14, i32 noundef %4, ptr noundef %5, ptr noundef %6, ptr noundef %7, ptr noundef %8)
  br label %30

30:                                               ; preds = %9, %19
  ret i1 %.not
}